; Function Attrs: mustprogress uwtable
define internal fastcc void @_ZN4i18n12phonenumbers12_GLOBAL__N_15LimitB5cxx11Eii(ptr dead_on_unwind noalias writable align 8 %0, i32 noundef %1, i32 noundef %2) unnamed_addr #4 personality ptr @__gxx_personality_v0 {
  %4 = alloca %"class.i18n::phonenumbers::StringHolder", align 8
  %5 = alloca %"class.i18n::phonenumbers::StringHolder", align 8
  %6 = alloca %"class.i18n::phonenumbers::StringHolder", align 8
  %7 = alloca %"class.i18n::phonenumbers::StringHolder", align 8
  %8 = alloca %"class.i18n::phonenumbers::StringHolder", align 8
  call void @_ZN4i18n12phonenumbers12StringHolderC1EPKc(ptr noundef nonnull align 8 dereferenceable(48) %4, ptr noundef nonnull @.str.40)
  %9 = zext nneg i32 %1 to i64
  invoke void @_ZN4i18n12phonenumbers12StringHolderC1Em(ptr noundef nonnull align 8 dereferenceable(48) %5, i64 noundef %9)
          to label %10 unwind label %16

10:                                               ; preds = %3
  invoke void @_ZN4i18n12phonenumbers12StringHolderC1EPKc(ptr noundef nonnull align 8 dereferenceable(48) %6, ptr noundef nonnull @.str.41)
          to label %11 unwind label %18

11:                                               ; preds = %10
  %12 = sext i32 %2 to i64
  invoke void @_ZN4i18n12phonenumbers12StringHolderC1Em(ptr noundef nonnull align 8 dereferenceable(48) %7, i64 noundef %12)
          to label %13 unwind label %20

13:                                               ; preds = %11
  invoke void @_ZN4i18n12phonenumbers12StringHolderC1EPKc(ptr noundef nonnull align 8 dereferenceable(48) %8, ptr noundef nonnull @.str.42)
          to label %14 unwind label %22

14:                                               ; preds = %13
  invoke void @_ZN4i18n12phonenumbers6StrCatB5cxx11ERKNS0_12StringHolderES3_S3_S3_S3_(ptr dead_on_unwind writable sret(%"class.std::__cxx11::basic_string") align 8 %0, ptr noundef nonnull align 8 dereferenceable(48) %4, ptr noundef nonnull align 8 dereferenceable(48) %5, ptr noundef nonnull align 8 dereferenceable(48) %6, ptr noundef nonnull align 8 dereferenceable(48) %7, ptr noundef nonnull align 8 dereferenceable(48) %8)
          to label %15 unwind label %24

15:                                               ; preds = %14
  call void @_ZN4i18n12phonenumbers12StringHolderD1Ev(ptr noundef nonnull align 8 dereferenceable(48) %8) #19
  call void @_ZN4i18n12phonenumbers12StringHolderD1Ev(ptr noundef nonnull align 8 dereferenceable(48) %7) #19
  call void @_ZN4i18n12phonenumbers12StringHolderD1Ev(ptr noundef nonnull align 8 dereferenceable(48) %6) #19
  call void @_ZN4i18n12phonenumbers12StringHolderD1Ev(ptr noundef nonnull align 8 dereferenceable(48) %5) #19
  call void @_ZN4i18n12phonenumbers12StringHolderD1Ev(ptr noundef nonnull align 8 dereferenceable(48) %4) #19
  ret void

16:                                               ; preds = %3
  %17 = landingpad { ptr, i32 }
          cleanup
  br label %29

18:                                               ; preds = %10
  %19 = landingpad { ptr, i32 }
          cleanup
  br label %28

20:                                               ; preds = %11
  %21 = landingpad { ptr, i32 }
          cleanup
  br label %27

22:                                               ; preds = %13
  %23 = landingpad { ptr, i32 }
          cleanup
  br label %26

24:                                               ; preds = %14
  %25 = landingpad { ptr, i32 }
          cleanup
  call void @_ZN4i18n12phonenumbers12StringHolderD1Ev(ptr noundef nonnull align 8 dereferenceable(48) %8) #19
  br label %26

26:                                               ; preds = %24, %22
  %.pn = phi { ptr, i32 } [ %25, %24 ], [ %23, %22 ]
  call void @_ZN4i18n12phonenumbers12StringHolderD1Ev(ptr noundef nonnull align 8 dereferenceable(48) %7) #19
  br label %27

27:                                               ; preds = %26, %20
  %.pn.pn = phi { ptr, i32 } [ %.pn, %26 ], [ %21, %20 ]
  call void @_ZN4i18n12phonenumbers12StringHolderD1Ev(ptr noundef nonnull align 8 dereferenceable(48) %6) #19
  br label %28

28:                                               ; preds = %27, %18
  %.pn.pn.pn = phi { ptr, i32 } [ %.pn.pn, %27 ], [ %19, %18 ]
  call void @_ZN4i18n12phonenumbers12StringHolderD1Ev(ptr noundef nonnull align 8 dereferenceable(48) %5) #19
  br label %29

29:                                               ; preds = %28, %16
  %.pn.pn.pn.pn = phi { ptr, i32 } [ %.pn.pn.pn, %28 ], [ %17, %16 ]
  call void @_ZN4i18n12phonenumbers12StringHolderD1Ev(ptr noundef nonnull align 8 dereferenceable(48) %4) #19
  resume { ptr, i32 } %.pn.pn.pn.pn
}